target datalayout = "e-m:e-p270:32:32-p271:32:32-p272:64:64-i64:64-i128:128-f80:128-n8:16:32:64-S128"
target triple = "x86_64-unknown-linux-gnu"

%"struct.icu_75::TimeZoneNamesCacheEntry" = type { ptr, i32, double }

; Function Attrs: mustprogress uwtable
define internal void @_ZN6icu_75L29deleteTimeZoneNamesCacheEntryEPv(ptr noundef %obj) #1 {
entry:
  %obj.addr = alloca ptr, align 8
  %entry1 = alloca ptr, align 8
  store ptr %obj, ptr %obj.addr, align 8
  %0 = load ptr, ptr %obj.addr, align 8
  store ptr %0, ptr %entry1, align 8
  %1 = load ptr, ptr %entry1, align 8
  %names = getelementptr inbounds %"struct.icu_75::TimeZoneNamesCacheEntry", ptr %1, i32 0, i32 0
  %2 = load ptr, ptr %names, align 8
  %isnull = icmp eq ptr %2, null
  br i1 %isnull, label %delete.end, label %delete.notnull

delete.notnull:                                   ; preds = %entry
  %vtable = load ptr, ptr %2, align 8
  %vfn = getelementptr inbounds ptr, ptr %vtable, i64 1
  %3 = load ptr, ptr %vfn, align 8
  call void %3(ptr noundef nonnull align 8 dereferenceable(320) %2) #9
  br label %delete.end

delete.end:                                       ; preds = %delete.notnull, %entry
  %4 = load ptr, ptr %entry1, align 8
  call void @uprv_free_75(ptr noundef %4)
  ret void
}